target datalayout = "e-m:e-p270:32:32-p271:32:32-p272:64:64-i64:64-i128:128-f80:128-n8:16:32:64-S128"
target triple = "x86_64-pc-linux-gnu"

%struct.slurm_conf_t = type { i64, ptr, i16, ptr, ptr, ptr, ptr, ptr, i16, ptr, ptr, ptr, ptr, ptr, ptr, ptr, i16, ptr, ptr, ptr, ptr, i16, ptr, ptr, ptr, i64, ptr, ptr, ptr, ptr, i16, ptr, ptr, i16, i32, ptr, i32, ptr, i32, i32, ptr, ptr, i64, i64, ptr, i16, i16, ptr, i32, i32, ptr, i32, ptr, i32, i16, i16, i16, ptr, i16, i16, ptr, ptr, i32, i16, i16, ptr, i32, i16, ptr, ptr, ptr, ptr, i16, ptr, ptr, ptr, ptr, i32, ptr, ptr, ptr, ptr, i16, i16, ptr, i32, i32, i32, i16, i16, ptr, ptr, i16, ptr, ptr, i32, i32, i32, i32, i32, i64, i32, i32, i16, ptr, ptr, i32, ptr, ptr, ptr, i16, i32, ptr, ptr, i16, ptr, ptr, i32, i16, ptr, ptr, ptr, ptr, i32, i32, i16, i16, i32, ptr, i16, ptr, i32, i32, i32, i32, i32, i32, ptr, i16, ptr, ptr, i32, i16, ptr, i32, i16, i16, ptr, ptr, ptr, i16, ptr, ptr, ptr, ptr, i16, i16, ptr, i16, ptr, i16, ptr, i16, ptr, i16, ptr, ptr, ptr, ptr, i16, ptr, ptr, ptr, i32, ptr, i32, ptr, ptr, i16, ptr, ptr, i32, i16, ptr, ptr, i16, i16, ptr, i16, ptr, ptr, ptr, i32, ptr, i16, i16, ptr, ptr, ptr, ptr, ptr, ptr, ptr, ptr, i16, i32, i16, ptr, ptr, ptr, ptr, i32, ptr, ptr, ptr, i16, ptr, ptr, ptr, i16, ptr, i16, ptr, i16, i16, ptr }
%struct.resv_desc_msg = type { ptr, ptr, ptr, i32, i32, i64, ptr, i64, ptr, ptr, ptr, i32, ptr, i32, ptr, ptr, i32, i64, i64, ptr, ptr }
%struct.reserve_info = type { ptr, ptr, ptr, i32, i32, ptr, i64, ptr, i64, ptr, ptr, i32, ptr, i32, ptr, ptr, ptr, i32, i64, ptr, ptr }

@slurm_conf = external global %struct.slurm_conf_t, align 8
@.str.112 = private unnamed_addr constant [197 x i8] c"%s: Name=%s StartTime=%s EndTime=%s Duration=%d Flags=%s NodeCnt=%u CoreCnt=%u NodeList=%s Features=%s PartitionName=%s Users=%s Groups=%s Accounts=%s Licenses=%s BurstBuffer=%s TRES=%s Comment=%s\00", align 1

; Function Attrs: nounwind uwtable
define internal void @_dump_resv_req(ptr noundef %0, ptr noundef %1) #0 {
  %3 = alloca ptr, align 8
  %4 = alloca ptr, align 8
  %5 = alloca [256 x i8], align 16
  %6 = alloca [256 x i8], align 16
  %7 = alloca ptr, align 8
  %8 = alloca i32, align 4
  %9 = alloca i32, align 4
  %10 = alloca %struct.reserve_info, align 8
  store ptr %0, ptr %3, align 8
  store ptr %1, ptr %4, align 8
  call void @llvm.lifetime.start.p0(i64 256, ptr %5) #10
  call void @llvm.memset.p0.i64(ptr align 16 %5, i8 0, i64 256, i1 false)
  %11 = getelementptr inbounds [256 x i8], ptr %5, i32 0, i32 0
  store i8 45, ptr %11, align 16
  %12 = getelementptr inbounds [256 x i8], ptr %5, i32 0, i32 1
  store i8 49, ptr %12, align 1
  call void @llvm.lifetime.start.p0(i64 256, ptr %6) #10
  call void @llvm.memset.p0.i64(ptr align 16 %6, i8 0, i64 256, i1 false)
  %13 = getelementptr inbounds [256 x i8], ptr %6, i32 0, i32 0
  store i8 45, ptr %13, align 16
  %14 = getelementptr inbounds [256 x i8], ptr %6, i32 0, i32 1
  store i8 49, ptr %14, align 1
  call void @llvm.lifetime.start.p0(i64 8, ptr %7) #10
  store ptr null, ptr %7, align 8
  call void @llvm.lifetime.start.p0(i64 4, ptr %8) #10
  %15 = load i64, ptr getelementptr inbounds nuw (%struct.slurm_conf_t, ptr @slurm_conf, i32 0, i32 42), align 8
  %16 = and i64 %15, 16384
  %17 = icmp ne i64 %16, 0
  br i1 %17, label %19, label %18

18:                                               ; preds = %2
  store i32 1, ptr %9, align 4
  br label %117

19:                                               ; preds = %2
  %20 = load ptr, ptr %3, align 8
  %21 = getelementptr inbounds nuw %struct.resv_desc_msg, ptr %20, i32 0, i32 17
  %22 = load i64, ptr %21, align 8
  %23 = icmp ne i64 %22, 4294967294
  br i1 %23, label %24, label %28

24:                                               ; preds = %19
  %25 = load ptr, ptr %3, align 8
  %26 = getelementptr inbounds nuw %struct.resv_desc_msg, ptr %25, i32 0, i32 17
  %27 = getelementptr inbounds [256 x i8], ptr %5, i64 0, i64 0
  call void @slurm_make_time_str(ptr noundef %26, ptr noundef %27, i32 noundef 256)
  br label %28

28:                                               ; preds = %24, %19
  %29 = load ptr, ptr %3, align 8
  %30 = getelementptr inbounds nuw %struct.resv_desc_msg, ptr %29, i32 0, i32 5
  %31 = load i64, ptr %30, align 8
  %32 = icmp ne i64 %31, 4294967294
  br i1 %32, label %33, label %37

33:                                               ; preds = %28
  %34 = load ptr, ptr %3, align 8
  %35 = getelementptr inbounds nuw %struct.resv_desc_msg, ptr %34, i32 0, i32 5
  %36 = getelementptr inbounds [256 x i8], ptr %6, i64 0, i64 0
  call void @slurm_make_time_str(ptr noundef %35, ptr noundef %36, i32 noundef 256)
  br label %37

37:                                               ; preds = %33, %28
  %38 = load ptr, ptr %3, align 8
  %39 = getelementptr inbounds nuw %struct.resv_desc_msg, ptr %38, i32 0, i32 7
  %40 = load i64, ptr %39, align 8
  %41 = icmp ne i64 %40, -2
  br i1 %41, label %42, label %52

42:                                               ; preds = %37
  call void @llvm.lifetime.start.p0(i64 160, ptr %10) #10
  call void @llvm.memset.p0.i64(ptr align 8 %10, i8 0, i64 160, i1 false)
  %43 = getelementptr inbounds nuw %struct.reserve_info, ptr %10, i32 0, i32 8
  %44 = load ptr, ptr %3, align 8
  %45 = getelementptr inbounds nuw %struct.resv_desc_msg, ptr %44, i32 0, i32 7
  %46 = load i64, ptr %45, align 8
  store i64 %46, ptr %43, align 8
  %47 = getelementptr inbounds nuw %struct.reserve_info, ptr %10, i32 0, i32 17
  %48 = load ptr, ptr %3, align 8
  %49 = getelementptr inbounds nuw %struct.resv_desc_msg, ptr %48, i32 0, i32 16
  %50 = load i32, ptr %49, align 8
  store i32 %50, ptr %47, align 8
  %51 = call ptr @reservation_flags_string(ptr noundef %10)
  store ptr %51, ptr %7, align 8
  call void @llvm.lifetime.end.p0(i64 160, ptr %10) #10
  br label %52

52:                                               ; preds = %42, %37
  %53 = load ptr, ptr %3, align 8
  %54 = getelementptr inbounds nuw %struct.resv_desc_msg, ptr %53, i32 0, i32 4
  %55 = load i32, ptr %54, align 4
  %56 = icmp eq i32 %55, -2
  br i1 %56, label %57, label %58

57:                                               ; preds = %52
  store i32 -1, ptr %8, align 4
  br label %62

58:                                               ; preds = %52
  %59 = load ptr, ptr %3, align 8
  %60 = getelementptr inbounds nuw %struct.resv_desc_msg, ptr %59, i32 0, i32 4
  %61 = load i32, ptr %60, align 4
  store i32 %61, ptr %8, align 4
  br label %62

62:                                               ; preds = %58, %57
  br label %63

63:                                               ; preds = %62
  br label %64

64:                                               ; preds = %63
  %65 = call i32 @get_log_level()
  %66 = icmp sge i32 %65, 3
  br i1 %66, label %67, label %112

67:                                               ; preds = %64
  %68 = load ptr, ptr %4, align 8
  %69 = load ptr, ptr %3, align 8
  %70 = getelementptr inbounds nuw %struct.resv_desc_msg, ptr %69, i32 0, i32 12
  %71 = load ptr, ptr %70, align 8
  %72 = getelementptr inbounds [256 x i8], ptr %5, i64 0, i64 0
  %73 = getelementptr inbounds [256 x i8], ptr %6, i64 0, i64 0
  %74 = load i32, ptr %8, align 4
  %75 = load ptr, ptr %7, align 8
  %76 = load ptr, ptr %3, align 8
  %77 = getelementptr inbounds nuw %struct.resv_desc_msg, ptr %76, i32 0, i32 13
  %78 = load i32, ptr %77, align 8
  %79 = load ptr, ptr %3, align 8
  %80 = getelementptr inbounds nuw %struct.resv_desc_msg, ptr %79, i32 0, i32 3
  %81 = load i32, ptr %80, align 8
  %82 = load ptr, ptr %3, align 8
  %83 = getelementptr inbounds nuw %struct.resv_desc_msg, ptr %82, i32 0, i32 14
  %84 = load ptr, ptr %83, align 8
  %85 = load ptr, ptr %3, align 8
  %86 = getelementptr inbounds nuw %struct.resv_desc_msg, ptr %85, i32 0, i32 6
  %87 = load ptr, ptr %86, align 8
  %88 = load ptr, ptr %3, align 8
  %89 = getelementptr inbounds nuw %struct.resv_desc_msg, ptr %88, i32 0, i32 15
  %90 = load ptr, ptr %89, align 8
  %91 = load ptr, ptr %3, align 8
  %92 = getelementptr inbounds nuw %struct.resv_desc_msg, ptr %91, i32 0, i32 20
  %93 = load ptr, ptr %92, align 8
  %94 = load ptr, ptr %3, align 8
  %95 = getelementptr inbounds nuw %struct.resv_desc_msg, ptr %94, i32 0, i32 8
  %96 = load ptr, ptr %95, align 8
  %97 = load ptr, ptr %3, align 8
  %98 = getelementptr inbounds nuw %struct.resv_desc_msg, ptr %97, i32 0, i32 0
  %99 = load ptr, ptr %98, align 8
  %100 = load ptr, ptr %3, align 8
  %101 = getelementptr inbounds nuw %struct.resv_desc_msg, ptr %100, i32 0, i32 10
  %102 = load ptr, ptr %101, align 8
  %103 = load ptr, ptr %3, align 8
  %104 = getelementptr inbounds nuw %struct.resv_desc_msg, ptr %103, i32 0, i32 1
  %105 = load ptr, ptr %104, align 8
  %106 = load ptr, ptr %3, align 8
  %107 = getelementptr inbounds nuw %struct.resv_desc_msg, ptr %106, i32 0, i32 19
  %108 = load ptr, ptr %107, align 8
  %109 = load ptr, ptr %3, align 8
  %110 = getelementptr inbounds nuw %struct.resv_desc_msg, ptr %109, i32 0, i32 2
  %111 = load ptr, ptr %110, align 8
  call void (i32, ptr, ...) @log_var(i32 noundef 3, ptr noundef @.str.112, ptr noundef %68, ptr noundef %71, ptr noundef %72, ptr noundef %73, i32 noundef %74, ptr noundef %75, i32 noundef %78, i32 noundef %81, ptr noundef %84, ptr noundef %87, ptr noundef %90, ptr noundef %93, ptr noundef %96, ptr noundef %99, ptr noundef %102, ptr noundef %105, ptr noundef %108, ptr noundef %111)
  br label %112

112:                                              ; preds = %67, %64
  br label %113

113:                                              ; preds = %112
  br label %114

114:                                              ; preds = %113
  br label %115

115:                                              ; preds = %114
  br label %116

116:                                              ; preds = %115
  call void @slurm_xfree(ptr noundef %7)
  store i32 0, ptr %9, align 4
  br label %117

117:                                              ; preds = %116, %18
  call void @llvm.lifetime.end.p0(i64 4, ptr %8) #10
  call void @llvm.lifetime.end.p0(i64 8, ptr %7) #10
  call void @llvm.lifetime.end.p0(i64 256, ptr %6) #10
  call void @llvm.lifetime.end.p0(i64 256, ptr %5) #10
  %118 = load i32, ptr %9, align 4
  switch i32 %118, label %120 [
    i32 0, label %119
    i32 1, label %119
  ]

119:                                              ; preds = %117, %117
  ret void

120:                                              ; preds = %117
  unreachable
}