; Function Attrs: nounwind uwtable
define internal fastcc void @_dump_resv_req(ptr noundef %0, ptr noundef %1) unnamed_addr #0 {
  %3 = alloca [256 x i8], align 16
  %4 = alloca [256 x i8], align 16
  %5 = alloca ptr, align 8
  %6 = alloca %struct.reserve_info, align 8
  call void @llvm.lifetime.start.p0(i64 256, ptr nonnull %3) #19
  call void @llvm.memset.p0.i64(ptr noundef nonnull align 16 dereferenceable(256) %3, i8 0, i64 256, i1 false)
  store i8 45, ptr %3, align 16
  %7 = getelementptr inbounds nuw i8, ptr %3, i64 1
  store i8 49, ptr %7, align 1
  call void @llvm.lifetime.start.p0(i64 256, ptr nonnull %4) #19
  call void @llvm.memset.p0.i64(ptr noundef nonnull align 16 dereferenceable(256) %4, i8 0, i64 256, i1 false)
  store i8 45, ptr %4, align 16
  %8 = getelementptr inbounds nuw i8, ptr %4, i64 1
  store i8 49, ptr %8, align 1
  call void @llvm.lifetime.start.p0(i64 8, ptr nonnull %5) #19
  store ptr null, ptr %5, align 8
  %9 = load i64, ptr getelementptr inbounds nuw (i8, ptr @slurm_conf, i64 320), align 8
  %10 = and i64 %9, 16384
  %.not = icmp eq i64 %10, 0
  br i1 %.not, label %62, label %11

11:                                               ; preds = %2
  %12 = getelementptr inbounds nuw i8, ptr %0, i64 128
  %13 = load i64, ptr %12, align 8
  %.not24 = icmp eq i64 %13, 4294967294
  br i1 %.not24, label %15, label %14

14:                                               ; preds = %11
  call void @slurm_make_time_str(ptr noundef nonnull %12, ptr noundef nonnull %3, i32 noundef 256) #19
  br label %15

15:                                               ; preds = %14, %11
  %16 = getelementptr inbounds nuw i8, ptr %0, i64 32
  %17 = load i64, ptr %16, align 8
  %.not25 = icmp eq i64 %17, 4294967294
  br i1 %.not25, label %19, label %18

18:                                               ; preds = %15
  call void @slurm_make_time_str(ptr noundef nonnull %16, ptr noundef nonnull %4, i32 noundef 256) #19
  br label %19

19:                                               ; preds = %18, %15
  %20 = getelementptr inbounds nuw i8, ptr %0, i64 48
  %21 = load i64, ptr %20, align 8
  %.not26 = icmp eq i64 %21, -2
  br i1 %.not26, label %28, label %22

22:                                               ; preds = %19
  call void @llvm.lifetime.start.p0(i64 160, ptr nonnull %6) #19
  call void @llvm.memset.p0.i64(ptr noundef nonnull align 8 dereferenceable(160) %6, i8 0, i64 160, i1 false)
  %23 = getelementptr inbounds nuw i8, ptr %6, i64 56
  store i64 %21, ptr %23, align 8
  %24 = getelementptr inbounds nuw i8, ptr %6, i64 128
  %25 = getelementptr inbounds nuw i8, ptr %0, i64 120
  %26 = load i32, ptr %25, align 8
  store i32 %26, ptr %24, align 8
  %27 = call ptr @reservation_flags_string(ptr noundef nonnull %6) #19
  store ptr %27, ptr %5, align 8
  call void @llvm.lifetime.end.p0(i64 160, ptr nonnull %6) #19
  br label %28

28:                                               ; preds = %22, %19
  %29 = phi ptr [ %27, %22 ], [ null, %19 ]
  %30 = getelementptr inbounds nuw i8, ptr %0, i64 28
  %31 = load i32, ptr %30, align 4
  %32 = call i32 @get_log_level() #19
  %33 = icmp sgt i32 %32, 2
  br i1 %33, label %34, label %61

34:                                               ; preds = %28
  %35 = icmp eq i32 %31, -2
  %. = select i1 %35, i32 -1, i32 %31
  %36 = getelementptr inbounds nuw i8, ptr %0, i64 88
  %37 = load ptr, ptr %36, align 8
  %38 = getelementptr inbounds nuw i8, ptr %0, i64 96
  %39 = load i32, ptr %38, align 8
  %40 = getelementptr inbounds nuw i8, ptr %0, i64 24
  %41 = load i32, ptr %40, align 8
  %42 = getelementptr inbounds nuw i8, ptr %0, i64 104
  %43 = load ptr, ptr %42, align 8
  %44 = getelementptr inbounds nuw i8, ptr %0, i64 40
  %45 = load ptr, ptr %44, align 8
  %46 = getelementptr inbounds nuw i8, ptr %0, i64 112
  %47 = load ptr, ptr %46, align 8
  %48 = getelementptr inbounds nuw i8, ptr %0, i64 152
  %49 = load ptr, ptr %48, align 8
  %50 = getelementptr inbounds nuw i8, ptr %0, i64 56
  %51 = load ptr, ptr %50, align 8
  %52 = load ptr, ptr %0, align 8
  %53 = getelementptr inbounds nuw i8, ptr %0, i64 72
  %54 = load ptr, ptr %53, align 8
  %55 = getelementptr inbounds nuw i8, ptr %0, i64 8
  %56 = load ptr, ptr %55, align 8
  %57 = getelementptr inbounds nuw i8, ptr %0, i64 144
  %58 = load ptr, ptr %57, align 8
  %59 = getelementptr inbounds nuw i8, ptr %0, i64 16
  %60 = load ptr, ptr %59, align 8
  call void (i32, ptr, ...) @log_var(i32 noundef 3, ptr noundef nonnull @.str.112, ptr noundef %1, ptr noundef %37, ptr noundef nonnull %3, ptr noundef nonnull %4, i32 noundef %., ptr noundef %29, i32 noundef %39, i32 noundef %41, ptr noundef %43, ptr noundef %45, ptr noundef %47, ptr noundef %49, ptr noundef %51, ptr noundef %52, ptr noundef %54, ptr noundef %56, ptr noundef %58, ptr noundef %60) #19
  br label %61

61:                                               ; preds = %34, %28
  call void @slurm_xfree(ptr noundef nonnull %5) #19
  br label %62

62:                                               ; preds = %2, %61
  call void @llvm.lifetime.end.p0(i64 8, ptr nonnull %5) #19
  call void @llvm.lifetime.end.p0(i64 256, ptr nonnull %4) #19
  call void @llvm.lifetime.end.p0(i64 256, ptr nonnull %3) #19
  ret void
}